; Function Attrs: mustprogress nofree norecurse nosync nounwind willreturn memory(argmem: write) uwtable
define void @_ZN5faiss15Level1QuantizerC2EPNS_5IndexEm(ptr noundef nonnull writeonly align 8 captures(none) dereferenceable(80) initializes((0, 18), (24, 37), (40, 52), (56, 66), (72, 80)) %0, ptr noundef %1, i64 noundef %2) unnamed_addr #11 align 2 {
  store ptr %1, ptr %0, align 8, !tbaa !57
  %4 = getelementptr inbounds nuw i8, ptr %0, i64 8
  store i64 %2, ptr %4, align 8, !tbaa !99
  %5 = getelementptr inbounds nuw i8, ptr %0, i64 16
  store i8 0, ptr %5, align 8, !tbaa !135
  %6 = getelementptr inbounds nuw i8, ptr %0, i64 17
  store i8 0, ptr %6, align 1, !tbaa !136
  %7 = getelementptr inbounds nuw i8, ptr %0, i64 24
  %8 = getelementptr inbounds nuw i8, ptr %0, i64 28
  store i32 1, ptr %8, align 4, !tbaa !137
  %9 = getelementptr inbounds nuw i8, ptr %0, i64 32
  %10 = getelementptr inbounds nuw i8, ptr %0, i64 40
  tail call void @llvm.memset.p0.i64(ptr noundef nonnull align 8 dereferenceable(5) %9, i8 0, i64 5, i1 false)
  store i32 39, ptr %10, align 8, !tbaa !138
  %11 = getelementptr inbounds nuw i8, ptr %0, i64 44
  store i32 256, ptr %11, align 4, !tbaa !139
  %12 = getelementptr inbounds nuw i8, ptr %0, i64 48
  store i32 1234, ptr %12, align 8, !tbaa !140
  %13 = getelementptr inbounds nuw i8, ptr %0, i64 56
  store i64 32768, ptr %13, align 8, !tbaa !141
  %14 = getelementptr inbounds nuw i8, ptr %0, i64 64
  store i8 1, ptr %14, align 8, !tbaa !142
  %15 = getelementptr inbounds nuw i8, ptr %0, i64 65
  store i8 0, ptr %15, align 1, !tbaa !143
  %16 = getelementptr inbounds nuw i8, ptr %0, i64 72
  store ptr null, ptr %16, align 8, !tbaa !144
  store i32 10, ptr %7, align 8, !tbaa !145
  ret void
}